target datalayout = "e-m:e-p270:32:32-p271:32:32-p272:64:64-i64:64-i128:128-f80:128-n8:16:32:64-S128"
target triple = "x86_64-pc-linux-gnu"

; Function Attrs: mustprogress uwtable
define dso_local noundef zeroext i1 @_ZN4Type30if_struct_will_have_assign_opsEv() #5 align 2 {
  %1 = alloca i1, align 1
  %2 = call noundef zeroext i1 @_ZN9CGOptions8lang_cppEv()
  br i1 %2, label %4, label %3

3:                                                ; preds = %0
  store i1 false, ptr %1, align 1
  br label %7

4:                                                ; preds = %0
  %5 = call noundef i32 @_ZN13Probabilities8get_probE8ProbName(i32 noundef 8)
  %6 = call noundef zeroext i1 @_Z12rnd_flipcoinjPK6FilterPKNSt7__cxx1112basic_stringIcSt11char_traitsIcESaIcEEE(i32 noundef %5, ptr noundef null, ptr noundef null)
  store i1 %6, ptr %1, align 1
  br label %7

7:                                                ; preds = %4, %3
  %8 = load i1, ptr %1, align 1
  ret i1 %8
}