; Function Attrs: mustprogress uwtable
define dso_local noundef zeroext i1 @_ZN4Type30if_struct_will_have_assign_opsEv() local_unnamed_addr #4 align 2 {
  %1 = tail call noundef zeroext i1 @_ZN9CGOptions8lang_cppEv()
  br i1 %1, label %2, label %5

2:                                                ; preds = %0
  %3 = tail call noundef i32 @_ZN13Probabilities8get_probE8ProbName(i32 noundef 8)
  %4 = tail call noundef zeroext i1 @_Z12rnd_flipcoinjPK6FilterPKNSt7__cxx1112basic_stringIcSt11char_traitsIcESaIcEEE(i32 noundef %3, ptr noundef null, ptr noundef null)
  br label %5

5:                                                ; preds = %0, %2
  %.0 = phi i1 [ %4, %2 ], [ false, %0 ]
  ret i1 %.0
}